target datalayout = "e-m:e-p270:32:32-p271:32:32-p272:64:64-i64:64-i128:128-f80:128-n8:16:32:64-S128"
target triple = "x86_64-pc-linux-gnu"

@hf_nan_publish_id = internal global i32 0, align 4
@hf_nan_attr_shared_key_rsna_descriptor = internal global i32 0, align 4

; Function Attrs: null_pointer_is_valid sspstrong uwtable
define internal void @dissect_attr_shared_key_descriptor(ptr noundef %0, ptr noundef %1, i32 noundef %2) #0 {
  %4 = alloca ptr, align 8
  %5 = alloca ptr, align 8
  %6 = alloca i32, align 4
  %7 = alloca i32, align 4
  store ptr %0, ptr %4, align 8
  store ptr %1, ptr %5, align 8
  store i32 %2, ptr %6, align 4
  call void @llvm.lifetime.start.p0(i64 4, ptr %7) #5
  %8 = load i32, ptr %6, align 4
  %9 = add i32 %8, 3
  store i32 %9, ptr %7, align 4
  %10 = load ptr, ptr %4, align 8
  %11 = load i32, ptr @hf_nan_publish_id, align 4
  %12 = load ptr, ptr %5, align 8
  %13 = load i32, ptr %7, align 4
  %14 = call ptr @proto_tree_add_item(ptr noundef %10, i32 noundef %11, ptr noundef %12, i32 noundef %13, i32 noundef 1, i32 noundef 0)
  %15 = load i32, ptr %7, align 4
  %16 = add i32 %15, 1
  store i32 %16, ptr %7, align 4
  %17 = load ptr, ptr %4, align 8
  %18 = load i32, ptr @hf_nan_attr_shared_key_rsna_descriptor, align 4
  %19 = load ptr, ptr %5, align 8
  %20 = load i32, ptr %7, align 4
  %21 = call ptr @proto_tree_add_item(ptr noundef %17, i32 noundef %18, ptr noundef %19, i32 noundef %20, i32 noundef -1, i32 noundef 0)
  call void @llvm.lifetime.end.p0(i64 4, ptr %7) #5
  ret void
}