; Function Attrs: null_pointer_is_valid sspstrong uwtable
define internal fastcc void @dissect_attr_shared_key_descriptor(ptr noundef %0, ptr noundef %1, i32 noundef %2) unnamed_addr #0 {
  %4 = add i32 %2, 3
  %5 = load i32, ptr @hf_nan_publish_id, align 4
  %6 = tail call ptr @proto_tree_add_item(ptr noundef %0, i32 noundef %5, ptr noundef %1, i32 noundef %4, i32 noundef 1, i32 noundef 0)
  %7 = add i32 %2, 4
  %8 = load i32, ptr @hf_nan_attr_shared_key_rsna_descriptor, align 4
  %9 = tail call ptr @proto_tree_add_item(ptr noundef %0, i32 noundef %8, ptr noundef %1, i32 noundef %7, i32 noundef -1, i32 noundef 0)
  ret void
}